target datalayout = "e-m:e-p270:32:32-p271:32:32-p272:64:64-i64:64-i128:128-f80:128-n8:16:32:64-S128"
target triple = "x86_64-pc-linux-gnu"

%struct.HeapTupleData = type { i32, %struct.ItemPointerData, i32, ptr }
%struct.ItemPointerData = type { %struct.BlockIdData, i16 }
%struct.BlockIdData = type { i16, i16 }
%struct.HeapTupleHeaderData = type { %union.anon, %struct.ItemPointerData, i16, i16, i8, [0 x i8] }
%union.anon = type { %struct.HeapTupleFields }
%struct.HeapTupleFields = type { i32, i32, %union.anon.0 }
%union.anon.0 = type { i32 }
%struct.nameData = type { [64 x i8] }
%struct.FormData_pg_operator = type { i32, %struct.nameData, i32, i32, i8, i8, i8, i32, i32, i32, i32, i32, i32, i32, i32 }

@.str.1 = private unnamed_addr constant [13 x i8] c"amvalidate.c\00", align 1
@.str.3 = private unnamed_addr constant [36 x i8] c"cache lookup failed for operator %u\00", align 1
@__func__.check_amop_signature = private unnamed_addr constant [21 x i8] c"check_amop_signature\00", align 1

; Function Attrs: inlinehint nounwind uwtable
define internal ptr @GETSTRUCT(ptr noundef %0) #4 {
  %2 = alloca ptr, align 8
  store ptr %0, ptr %2, align 8
  %3 = load ptr, ptr %2, align 8
  %4 = getelementptr inbounds nuw %struct.HeapTupleData, ptr %3, i32 0, i32 3
  %5 = load ptr, ptr %4, align 8
  %6 = load ptr, ptr %2, align 8
  %7 = getelementptr inbounds nuw %struct.HeapTupleData, ptr %6, i32 0, i32 3
  %8 = load ptr, ptr %7, align 8
  %9 = getelementptr inbounds nuw %struct.HeapTupleHeaderData, ptr %8, i32 0, i32 4
  %10 = load i8, ptr %9, align 2
  %11 = zext i8 %10 to i32
  %12 = sext i32 %11 to i64
  %13 = getelementptr inbounds i8, ptr %5, i64 %12
  ret ptr %13
}

; Function Attrs: inlinehint nounwind uwtable
define internal i64 @ObjectIdGetDatum(i32 noundef %0) #4 {
  %2 = alloca i32, align 4
  store i32 %0, ptr %2, align 4
  %3 = load i32, ptr %2, align 4
  %4 = zext i32 %3 to i64
  ret i64 %4
}

; Function Attrs: nounwind uwtable
define dso_local zeroext i1 @check_amop_signature(i32 noundef %0, i32 noundef %1, i32 noundef %2, i32 noundef %3) #0 {
  %5 = alloca i32, align 4
  %6 = alloca i32, align 4
  %7 = alloca i32, align 4
  %8 = alloca i32, align 4
  %9 = alloca i8, align 1
  %10 = alloca ptr, align 8
  %11 = alloca ptr, align 8
  store i32 %0, ptr %5, align 4
  store i32 %1, ptr %6, align 4
  store i32 %2, ptr %7, align 4
  store i32 %3, ptr %8, align 4
  call void @llvm.lifetime.start.p0(i64 1, ptr %9) #6
  store i8 1, ptr %9, align 1
  call void @llvm.lifetime.start.p0(i64 8, ptr %10) #6
  call void @llvm.lifetime.start.p0(i64 8, ptr %11) #6
  %12 = load i32, ptr %5, align 4
  %13 = call i64 @ObjectIdGetDatum(i32 noundef %12)
  %14 = call ptr @SearchSysCache1(i32 noundef 40, i64 noundef %13)
  store ptr %14, ptr %10, align 8
  %15 = load ptr, ptr %10, align 8
  %16 = icmp ne ptr %15, null
  br i1 %16, label %29, label %17

17:                                               ; preds = %4
  br label %18

18:                                               ; preds = %17
  br i1 true, label %19, label %21

19:                                               ; preds = %18
  %20 = call zeroext i1 @errstart_cold(i32 noundef 21, ptr noundef null) #7
  br i1 %20, label %23, label %26

21:                                               ; preds = %18
  %22 = call zeroext i1 @errstart(i32 noundef 21, ptr noundef null)
  br i1 %22, label %23, label %26

23:                                               ; preds = %21, %19
  %24 = load i32, ptr %5, align 4
  %25 = call i32 (ptr, ...) @errmsg_internal(ptr noundef @.str.3, i32 noundef %24)
  call void @errfinish(ptr noundef @.str.1, i32 noundef 214, ptr noundef @__func__.check_amop_signature)
  br label %26

26:                                               ; preds = %23, %21, %19
  unreachable

27:                                               ; No predecessors!
  br label %28

28:                                               ; preds = %27
  br label %29

29:                                               ; preds = %28, %4
  %30 = load ptr, ptr %10, align 8
  %31 = call ptr @GETSTRUCT(ptr noundef %30)
  store ptr %31, ptr %11, align 8
  %32 = load ptr, ptr %11, align 8
  %33 = getelementptr inbounds nuw %struct.FormData_pg_operator, ptr %32, i32 0, i32 9
  %34 = load i32, ptr %33, align 4
  %35 = load i32, ptr %6, align 4
  %36 = icmp ne i32 %34, %35
  br i1 %36, label %55, label %37

37:                                               ; preds = %29
  %38 = load ptr, ptr %11, align 8
  %39 = getelementptr inbounds nuw %struct.FormData_pg_operator, ptr %38, i32 0, i32 4
  %40 = load i8, ptr %39, align 4
  %41 = sext i8 %40 to i32
  %42 = icmp ne i32 %41, 98
  br i1 %42, label %55, label %43

43:                                               ; preds = %37
  %44 = load ptr, ptr %11, align 8
  %45 = getelementptr inbounds nuw %struct.FormData_pg_operator, ptr %44, i32 0, i32 7
  %46 = load i32, ptr %45, align 4
  %47 = load i32, ptr %7, align 4
  %48 = icmp ne i32 %46, %47
  br i1 %48, label %55, label %49

49:                                               ; preds = %43
  %50 = load ptr, ptr %11, align 8
  %51 = getelementptr inbounds nuw %struct.FormData_pg_operator, ptr %50, i32 0, i32 8
  %52 = load i32, ptr %51, align 4
  %53 = load i32, ptr %8, align 4
  %54 = icmp ne i32 %52, %53
  br i1 %54, label %55, label %56

55:                                               ; preds = %49, %43, %37, %29
  store i8 0, ptr %9, align 1
  br label %56

56:                                               ; preds = %55, %49
  %57 = load ptr, ptr %10, align 8
  call void @ReleaseSysCache(ptr noundef %57)
  %58 = load i8, ptr %9, align 1, !range !4, !noundef !5
  %59 = trunc i8 %58 to i1
  call void @llvm.lifetime.end.p0(i64 8, ptr %11) #6
  call void @llvm.lifetime.end.p0(i64 8, ptr %10) #6
  call void @llvm.lifetime.end.p0(i64 1, ptr %9) #6
  ret i1 %59
}