; Function Attrs: nounwind uwtable
define dso_local noundef zeroext i1 @check_amop_signature(i32 noundef %0, i32 noundef %1, i32 noundef %2, i32 noundef %3) local_unnamed_addr #0 {
  %5 = zext i32 %0 to i64
  %6 = tail call ptr @SearchSysCache1(i32 noundef 40, i64 noundef %5) #8
  %.not = icmp eq ptr %6, null
  br i1 %.not, label %7, label %10

7:                                                ; preds = %4
  %8 = tail call zeroext i1 @errstart_cold(i32 noundef 21, ptr noundef null) #7
  tail call void @llvm.assume(i1 %8)
  %9 = tail call i32 (ptr, ...) @errmsg_internal(ptr noundef nonnull @.str.3, i32 noundef %0) #8
  tail call void @errfinish(ptr noundef nonnull @.str.1, i32 noundef 214, ptr noundef nonnull @__func__.check_amop_signature) #8
  unreachable

10:                                               ; preds = %4
  %11 = getelementptr i8, ptr %6, i64 16
  %.val = load ptr, ptr %11, align 8
  %12 = getelementptr inbounds nuw i8, ptr %.val, i64 22
  %13 = load i8, ptr %12, align 2
  %14 = zext i8 %13 to i64
  %15 = getelementptr inbounds nuw i8, ptr %.val, i64 %14
  %16 = getelementptr inbounds nuw i8, ptr %15, i64 88
  %17 = load i32, ptr %16, align 4
  %.not13 = icmp eq i32 %17, %1
  br i1 %.not13, label %18, label %27

18:                                               ; preds = %10
  %19 = getelementptr inbounds nuw i8, ptr %15, i64 76
  %20 = load i8, ptr %19, align 4
  %.not14 = icmp eq i8 %20, 98
  br i1 %.not14, label %21, label %27

21:                                               ; preds = %18
  %22 = getelementptr inbounds nuw i8, ptr %15, i64 80
  %23 = load i32, ptr %22, align 4
  %.not15 = icmp eq i32 %23, %2
  br i1 %.not15, label %24, label %27

24:                                               ; preds = %21
  %25 = getelementptr inbounds nuw i8, ptr %15, i64 84
  %26 = load i32, ptr %25, align 4
  %.not16 = icmp eq i32 %26, %3
  br i1 %.not16, label %28, label %27

27:                                               ; preds = %24, %21, %18, %10
  br label %28

28:                                               ; preds = %27, %24
  %.0 = phi i1 [ false, %27 ], [ true, %24 ]
  tail call void @ReleaseSysCache(ptr noundef nonnull %6) #8
  ret i1 %.0
}